; ModuleID = '30/57.c'
source_filename = "30/57.c"
target datalayout = "e-m:e-p270:32:32-p271:32:32-p272:64:64-i64:64-f80:128-n8:16:32:64-S128"
target triple = "x86_64-pc-linux-gnu"

@.str = private unnamed_addr constant [3 x i8] c"%d\00", align 1

; Function Attrs: noinline nounwind uwtable
define dso_local i32 @main() #0 {
  %1 = alloca i32, align 4
  %2 = alloca i32, align 4
  %3 = alloca i32, align 4
  %4 = alloca i32, align 4
  %5 = alloca i32, align 4
  %6 = alloca i32, align 4
  %7 = alloca i32, align 4
  store i32 0, i32* %1, align 4
  store i32 0, i32* %7, align 4
  %8 = call i32 (i8*, ...) @__isoc99_scanf(i8* getelementptr inbounds ([3 x i8], [3 x i8]* @.str, i64 0, i64 0), i32* %2)
  store i32 1, i32* %6, align 4
  br label %9

9:                                                ; preds = %44, %0
  %10 = load i32, i32* %6, align 4
  %11 = load i32, i32* %2, align 4
  %12 = icmp sle i32 %10, %11
  br i1 %12, label %13, label %47

13:                                               ; preds = %9
  %14 = load i32, i32* %6, align 4
  %15 = srem i32 %14, 7
  %16 = icmp eq i32 %15, 0
  br i1 %16, label %17, label %18

17:                                               ; preds = %13
  store i32 0, i32* %3, align 4
  br label %38

18:                                               ; preds = %13
  %19 = load i32, i32* %6, align 4
  store i32 %19, i32* %3, align 4
  %20 = load i32, i32* %6, align 4
  %21 = sdiv i32 %20, 10
  store i32 %21, i32* %4, align 4
  %22 = load i32, i32* %4, align 4
  %23 = icmp eq i32 %22, 7
  br i1 %23, label %24, label %25

24:                                               ; preds = %18
  store i32 0, i32* %3, align 4
  br label %37

25:                                               ; preds = %18
  %26 = load i32, i32* %6, align 4
  store i32 %26, i32* %3, align 4
  %27 = load i32, i32* %6, align 4
  %28 = load i32, i32* %4, align 4
  %29 = mul nsw i32 %28, 10
  %30 = sub nsw i32 %27, %29
  store i32 %30, i32* %5, align 4
  %31 = load i32, i32* %5, align 4
  %32 = icmp eq i32 %31, 7
  br i1 %32, label %33, label %34

33:                                               ; preds = %25
  store i32 0, i32* %3, align 4
  br label %36

34:                                               ; preds = %25
  %35 = load i32, i32* %6, align 4
  store i32 %35, i32* %3, align 4
  br label %36

36:                                               ; preds = %34, %33
  br label %37

37:                                               ; preds = %36, %24
  br label %38

38:                                               ; preds = %37, %17
  %39 = load i32, i32* %7, align 4
  %40 = load i32, i32* %3, align 4
  %41 = load i32, i32* %3, align 4
  %42 = mul nsw i32 %40, %41
  %43 = add nsw i32 %39, %42
  store i32 %43, i32* %7, align 4
  br label %44

44:                                               ; preds = %38
  %45 = load i32, i32* %6, align 4
  %46 = add nsw i32 %45, 1
  store i32 %46, i32* %6, align 4
  br label %9

47:                                               ; preds = %9
  %48 = load i32, i32* %7, align 4
  %49 = call i32 (i8*, ...) @printf(i8* getelementptr inbounds ([3 x i8], [3 x i8]* @.str, i64 0, i64 0), i32 %48)
  %50 = load i32, i32* %1, align 4
  ret i32 %50
}

declare dso_local i32 @__isoc99_scanf(i8*, ...) #1

declare dso_local i32 @printf(i8*, ...) #1


!llvm.module.flags = !{!0}
!llvm.ident = !{!1}

!0 = !{i32 1, !"wchar_size", i32 4}
!1 = !{!"clang version 10.0.0-4ubuntu1 "}
